; Function Attrs: nounwind uwtable
define noalias noundef ptr @Bac_PtrTransformNtk(ptr noundef readonly captures(none) %0, ptr noundef %1) local_unnamed_addr #0 {
  %3 = getelementptr i8, ptr %0, i64 8
  %.val18 = load ptr, ptr %3, align 8
  %4 = load ptr, ptr %.val18, align 8
  %5 = getelementptr inbounds nuw i8, ptr %.val18, i64 8
  %6 = load ptr, ptr %5, align 8
  %7 = getelementptr inbounds nuw i8, ptr %.val18, i64 16
  %8 = load ptr, ptr %7, align 8
  %9 = getelementptr inbounds nuw i8, ptr %.val18, i64 32
  %10 = load ptr, ptr %9, align 8
  %11 = getelementptr i8, ptr %0, i64 4
  %.val19 = load i32, ptr %11, align 4
  %12 = tail call noalias dereferenceable_or_null(16) ptr @malloc(i64 noundef 16) #15
  %13 = getelementptr inbounds nuw i8, ptr %12, i64 4
  store i32 %.val19, ptr %12, align 8
  %.not.i = icmp eq i32 %.val19, 0
  br i1 %.not.i, label %Vec_PtrAllocExact.exit, label %14

14:                                               ; preds = %2
  %15 = sext i32 %.val19 to i64
  %16 = shl nsw i64 %15, 3
  %17 = tail call noalias ptr @malloc(i64 noundef %16) #15
  br label %Vec_PtrAllocExact.exit

Vec_PtrAllocExact.exit:                           ; preds = %2, %14
  %18 = phi ptr [ %17, %14 ], [ null, %2 ]
  %19 = getelementptr inbounds nuw i8, ptr %12, i64 8
  store ptr %18, ptr %19, align 8
  %.not.i20 = icmp eq ptr %4, null
  br i1 %.not.i20, label %Abc_UtilStrsav.exit, label %20

20:                                               ; preds = %Vec_PtrAllocExact.exit
  %21 = tail call i64 @strlen(ptr noundef nonnull readonly dereferenceable(1) %4) #16
  %22 = add i64 %21, 1
  %23 = tail call noalias ptr @malloc(i64 noundef %22) #15
  %24 = tail call ptr @strcpy(ptr noundef nonnull dereferenceable(1) %23, ptr noundef nonnull readonly dereferenceable(1) %4) #14
  br label %Abc_UtilStrsav.exit

Abc_UtilStrsav.exit:                              ; preds = %Vec_PtrAllocExact.exit, %20
  %25 = phi ptr [ %23, %20 ], [ null, %Vec_PtrAllocExact.exit ]
  br i1 %.not.i, label %26, label %Vec_PtrPush.exit

26:                                               ; preds = %Abc_UtilStrsav.exit
  %.not9.i.i = icmp eq ptr %18, null
  br i1 %.not9.i.i, label %29, label %27

27:                                               ; preds = %26
  %28 = tail call dereferenceable_or_null(128) ptr @realloc(ptr noundef nonnull %18, i64 noundef 128) #17
  br label %Vec_PtrGrow.exit.i

29:                                               ; preds = %26
  %30 = tail call noalias dereferenceable_or_null(128) ptr @malloc(i64 noundef 128) #15
  br label %Vec_PtrGrow.exit.i

Vec_PtrGrow.exit.i:                               ; preds = %29, %27
  %31 = phi ptr [ %28, %27 ], [ %30, %29 ]
  store ptr %31, ptr %19, align 8
  store i32 16, ptr %12, align 8
  br label %Vec_PtrPush.exit

Vec_PtrPush.exit:                                 ; preds = %Abc_UtilStrsav.exit, %Vec_PtrGrow.exit.i
  %32 = phi ptr [ %31, %Vec_PtrGrow.exit.i ], [ %18, %Abc_UtilStrsav.exit ]
  store i32 1, ptr %13, align 4
  store ptr %25, ptr %32, align 8
  %33 = tail call ptr @Bac_PtrTransformSigs(ptr noundef %6)
  %34 = load i32, ptr %13, align 4
  %35 = load i32, ptr %12, align 8
  %36 = icmp eq i32 %34, %35
  br i1 %36, label %37, label %.Vec_PtrGrow.exit11_crit_edge.i21

.Vec_PtrGrow.exit11_crit_edge.i21:                ; preds = %Vec_PtrPush.exit
  %.pre.i23 = load ptr, ptr %19, align 8
  br label %Vec_PtrPush.exit27

37:                                               ; preds = %Vec_PtrPush.exit
  %38 = icmp slt i32 %34, 16
  br i1 %38, label %39, label %46

39:                                               ; preds = %37
  %40 = load ptr, ptr %19, align 8
  %.not9.i.i25 = icmp eq ptr %40, null
  br i1 %.not9.i.i25, label %43, label %41

41:                                               ; preds = %39
  %42 = tail call dereferenceable_or_null(128) ptr @realloc(ptr noundef nonnull %40, i64 noundef 128) #17
  br label %Vec_PtrGrow.exit.i26

43:                                               ; preds = %39
  %44 = tail call noalias dereferenceable_or_null(128) ptr @malloc(i64 noundef 128) #15
  br label %Vec_PtrGrow.exit.i26

Vec_PtrGrow.exit.i26:                             ; preds = %43, %41
  %45 = phi ptr [ %42, %41 ], [ %44, %43 ]
  store ptr %45, ptr %19, align 8
  store i32 16, ptr %12, align 8
  br label %Vec_PtrPush.exit27

46:                                               ; preds = %37
  %47 = shl nuw nsw i32 %34, 1
  %48 = load ptr, ptr %19, align 8
  %.not9.i10.i24 = icmp eq ptr %48, null
  %49 = zext nneg i32 %47 to i64
  %50 = shl nuw nsw i64 %49, 3
  br i1 %.not9.i10.i24, label %53, label %51

51:                                               ; preds = %46
  %52 = tail call ptr @realloc(ptr noundef nonnull %48, i64 noundef %50) #17
  br label %55

53:                                               ; preds = %46
  %54 = tail call noalias ptr @malloc(i64 noundef %50) #15
  br label %55

55:                                               ; preds = %53, %51
  %56 = phi ptr [ %52, %51 ], [ %54, %53 ]
  store ptr %56, ptr %19, align 8
  store i32 %47, ptr %12, align 8
  br label %Vec_PtrPush.exit27

Vec_PtrPush.exit27:                               ; preds = %.Vec_PtrGrow.exit11_crit_edge.i21, %Vec_PtrGrow.exit.i26, %55
  %57 = phi ptr [ %.pre.i23, %.Vec_PtrGrow.exit11_crit_edge.i21 ], [ %56, %55 ], [ %45, %Vec_PtrGrow.exit.i26 ]
  %58 = add nsw i32 %34, 1
  store i32 %58, ptr %13, align 4
  %59 = sext i32 %34 to i64
  %60 = getelementptr inbounds ptr, ptr %57, i64 %59
  store ptr %33, ptr %60, align 8
  %61 = tail call ptr @Bac_PtrTransformSigs(ptr noundef %8)
  %62 = load i32, ptr %13, align 4
  %63 = load i32, ptr %12, align 8
  %64 = icmp eq i32 %62, %63
  br i1 %64, label %65, label %.Vec_PtrGrow.exit11_crit_edge.i28

.Vec_PtrGrow.exit11_crit_edge.i28:                ; preds = %Vec_PtrPush.exit27
  %.pre.i30 = load ptr, ptr %19, align 8
  br label %Vec_PtrPush.exit34

65:                                               ; preds = %Vec_PtrPush.exit27
  %66 = icmp slt i32 %62, 16
  br i1 %66, label %67, label %74

67:                                               ; preds = %65
  %68 = load ptr, ptr %19, align 8
  %.not9.i.i32 = icmp eq ptr %68, null
  br i1 %.not9.i.i32, label %71, label %69

69:                                               ; preds = %67
  %70 = tail call dereferenceable_or_null(128) ptr @realloc(ptr noundef nonnull %68, i64 noundef 128) #17
  br label %Vec_PtrGrow.exit.i33

71:                                               ; preds = %67
  %72 = tail call noalias dereferenceable_or_null(128) ptr @malloc(i64 noundef 128) #15
  br label %Vec_PtrGrow.exit.i33

Vec_PtrGrow.exit.i33:                             ; preds = %71, %69
  %73 = phi ptr [ %70, %69 ], [ %72, %71 ]
  store ptr %73, ptr %19, align 8
  store i32 16, ptr %12, align 8
  br label %Vec_PtrPush.exit34

74:                                               ; preds = %65
  %75 = shl nuw nsw i32 %62, 1
  %76 = load ptr, ptr %19, align 8
  %.not9.i10.i31 = icmp eq ptr %76, null
  %77 = zext nneg i32 %75 to i64
  %78 = shl nuw nsw i64 %77, 3
  br i1 %.not9.i10.i31, label %81, label %79

79:                                               ; preds = %74
  %80 = tail call ptr @realloc(ptr noundef nonnull %76, i64 noundef %78) #17
  br label %83

81:                                               ; preds = %74
  %82 = tail call noalias ptr @malloc(i64 noundef %78) #15
  br label %83

83:                                               ; preds = %81, %79
  %84 = phi ptr [ %80, %79 ], [ %82, %81 ]
  store ptr %84, ptr %19, align 8
  store i32 %75, ptr %12, align 8
  br label %Vec_PtrPush.exit34

Vec_PtrPush.exit34:                               ; preds = %.Vec_PtrGrow.exit11_crit_edge.i28, %Vec_PtrGrow.exit.i33, %83
  %85 = phi ptr [ %.pre.i30, %.Vec_PtrGrow.exit11_crit_edge.i28 ], [ %84, %83 ], [ %73, %Vec_PtrGrow.exit.i33 ]
  %86 = add nsw i32 %62, 1
  store i32 %86, ptr %13, align 4
  %87 = sext i32 %62 to i64
  %88 = getelementptr inbounds ptr, ptr %85, i64 %87
  store ptr %61, ptr %88, align 8
  %calloc = tail call dereferenceable_or_null(16) ptr @calloc(i64 1, i64 16)
  %89 = load i32, ptr %13, align 4
  %90 = load i32, ptr %12, align 8
  %91 = icmp eq i32 %89, %90
  br i1 %91, label %92, label %.Vec_PtrGrow.exit11_crit_edge.i35

.Vec_PtrGrow.exit11_crit_edge.i35:                ; preds = %Vec_PtrPush.exit34
  %.pre.i37 = load ptr, ptr %19, align 8
  br label %Vec_PtrPush.exit41

92:                                               ; preds = %Vec_PtrPush.exit34
  %93 = icmp slt i32 %89, 16
  br i1 %93, label %94, label %101

94:                                               ; preds = %92
  %95 = load ptr, ptr %19, align 8
  %.not9.i.i39 = icmp eq ptr %95, null
  br i1 %.not9.i.i39, label %98, label %96

96:                                               ; preds = %94
  %97 = tail call dereferenceable_or_null(128) ptr @realloc(ptr noundef nonnull %95, i64 noundef 128) #17
  br label %Vec_PtrGrow.exit.i40

98:                                               ; preds = %94
  %99 = tail call noalias dereferenceable_or_null(128) ptr @malloc(i64 noundef 128) #15
  br label %Vec_PtrGrow.exit.i40

Vec_PtrGrow.exit.i40:                             ; preds = %98, %96
  %100 = phi ptr [ %97, %96 ], [ %99, %98 ]
  store ptr %100, ptr %19, align 8
  store i32 16, ptr %12, align 8
  br label %Vec_PtrPush.exit41

101:                                              ; preds = %92
  %102 = shl nuw nsw i32 %89, 1
  %103 = load ptr, ptr %19, align 8
  %.not9.i10.i38 = icmp eq ptr %103, null
  %104 = zext nneg i32 %102 to i64
  %105 = shl nuw nsw i64 %104, 3
  br i1 %.not9.i10.i38, label %108, label %106

106:                                              ; preds = %101
  %107 = tail call ptr @realloc(ptr noundef nonnull %103, i64 noundef %105) #17
  br label %110

108:                                              ; preds = %101
  %109 = tail call noalias ptr @malloc(i64 noundef %105) #15
  br label %110

110:                                              ; preds = %108, %106
  %111 = phi ptr [ %107, %106 ], [ %109, %108 ]
  store ptr %111, ptr %19, align 8
  store i32 %102, ptr %12, align 8
  br label %Vec_PtrPush.exit41

Vec_PtrPush.exit41:                               ; preds = %.Vec_PtrGrow.exit11_crit_edge.i35, %Vec_PtrGrow.exit.i40, %110
  %112 = phi ptr [ %.pre.i37, %.Vec_PtrGrow.exit11_crit_edge.i35 ], [ %111, %110 ], [ %100, %Vec_PtrGrow.exit.i40 ]
  %113 = add nsw i32 %89, 1
  store i32 %113, ptr %13, align 4
  %114 = sext i32 %89 to i64
  %115 = getelementptr inbounds ptr, ptr %112, i64 %114
  store ptr %calloc, ptr %115, align 8
  %116 = tail call ptr @Bac_PtrTransformBoxes(ptr noundef %10, ptr noundef %1)
  %117 = load i32, ptr %13, align 4
  %118 = load i32, ptr %12, align 8
  %119 = icmp eq i32 %117, %118
  br i1 %119, label %120, label %.Vec_PtrGrow.exit11_crit_edge.i42

.Vec_PtrGrow.exit11_crit_edge.i42:                ; preds = %Vec_PtrPush.exit41
  %.pre.i44 = load ptr, ptr %19, align 8
  br label %Vec_PtrPush.exit48

120:                                              ; preds = %Vec_PtrPush.exit41
  %121 = icmp slt i32 %117, 16
  br i1 %121, label %122, label %129

122:                                              ; preds = %120
  %123 = load ptr, ptr %19, align 8
  %.not9.i.i46 = icmp eq ptr %123, null
  br i1 %.not9.i.i46, label %126, label %124

124:                                              ; preds = %122
  %125 = tail call dereferenceable_or_null(128) ptr @realloc(ptr noundef nonnull %123, i64 noundef 128) #17
  br label %Vec_PtrGrow.exit.i47

126:                                              ; preds = %122
  %127 = tail call noalias dereferenceable_or_null(128) ptr @malloc(i64 noundef 128) #15
  br label %Vec_PtrGrow.exit.i47

Vec_PtrGrow.exit.i47:                             ; preds = %126, %124
  %128 = phi ptr [ %125, %124 ], [ %127, %126 ]
  store ptr %128, ptr %19, align 8
  store i32 16, ptr %12, align 8
  br label %Vec_PtrPush.exit48

129:                                              ; preds = %120
  %130 = shl nuw nsw i32 %117, 1
  %131 = load ptr, ptr %19, align 8
  %.not9.i10.i45 = icmp eq ptr %131, null
  %132 = zext nneg i32 %130 to i64
  %133 = shl nuw nsw i64 %132, 3
  br i1 %.not9.i10.i45, label %136, label %134

134:                                              ; preds = %129
  %135 = tail call ptr @realloc(ptr noundef nonnull %131, i64 noundef %133) #17
  br label %138

136:                                              ; preds = %129
  %137 = tail call noalias ptr @malloc(i64 noundef %133) #15
  br label %138

138:                                              ; preds = %136, %134
  %139 = phi ptr [ %135, %134 ], [ %137, %136 ]
  store ptr %139, ptr %19, align 8
  store i32 %130, ptr %12, align 8
  br label %Vec_PtrPush.exit48

Vec_PtrPush.exit48:                               ; preds = %.Vec_PtrGrow.exit11_crit_edge.i42, %Vec_PtrGrow.exit.i47, %138
  %140 = phi ptr [ %.pre.i44, %.Vec_PtrGrow.exit11_crit_edge.i42 ], [ %139, %138 ], [ %128, %Vec_PtrGrow.exit.i47 ]
  %141 = add nsw i32 %117, 1
  store i32 %141, ptr %13, align 4
  %142 = sext i32 %117 to i64
  %143 = getelementptr inbounds ptr, ptr %140, i64 %142
  store ptr %116, ptr %143, align 8
  ret ptr %12
}